; ModuleID = '10/2012.c'
source_filename = "10/2012.c"
target datalayout = "e-m:e-p270:32:32-p271:32:32-p272:64:64-i64:64-f80:128-n8:16:32:64-S128"
target triple = "x86_64-pc-linux-gnu"

@.str = private unnamed_addr constant [3 x i8] c"%d\00", align 1

; Function Attrs: noinline nounwind uwtable
define dso_local i32 @max(i32* %0, i32* %1, i32 %2, i32 %3, i32 %4) #0 {
  %6 = alloca i32*, align 8
  %7 = alloca i32*, align 8
  %8 = alloca i32, align 4
  %9 = alloca i32, align 4
  %10 = alloca i32, align 4
  %11 = alloca i32, align 4
  %12 = alloca i32, align 4
  store i32* %0, i32** %6, align 8
  store i32* %1, i32** %7, align 8
  store i32 %2, i32* %8, align 4
  store i32 %3, i32* %9, align 4
  store i32 %4, i32* %10, align 4
  store i32 0, i32* %12, align 4
  %13 = load i32, i32* %8, align 4
  %14 = add nsw i32 %13, 1
  store i32 %14, i32* %11, align 4
  br label %15

15:                                               ; preds = %42, %5
  %16 = load i32, i32* %11, align 4
  %17 = load i32, i32* %9, align 4
  %18 = icmp slt i32 %16, %17
  br i1 %18, label %19, label %45

19:                                               ; preds = %15
  %20 = load i32*, i32** %6, align 8
  %21 = load i32, i32* %11, align 4
  %22 = sext i32 %21 to i64
  %23 = getelementptr inbounds i32, i32* %20, i64 %22
  %24 = load i32, i32* %23, align 4
  %25 = load i32, i32* %10, align 4
  %26 = icmp sle i32 %24, %25
  br i1 %26, label %27, label %41

27:                                               ; preds = %19
  %28 = load i32*, i32** %7, align 8
  %29 = load i32, i32* %11, align 4
  %30 = sext i32 %29 to i64
  %31 = getelementptr inbounds i32, i32* %28, i64 %30
  %32 = load i32, i32* %31, align 4
  %33 = load i32, i32* %12, align 4
  %34 = icmp sgt i32 %32, %33
  br i1 %34, label %35, label %41

35:                                               ; preds = %27
  %36 = load i32*, i32** %7, align 8
  %37 = load i32, i32* %11, align 4
  %38 = sext i32 %37 to i64
  %39 = getelementptr inbounds i32, i32* %36, i64 %38
  %40 = load i32, i32* %39, align 4
  store i32 %40, i32* %12, align 4
  br label %41

41:                                               ; preds = %35, %27, %19
  br label %42

42:                                               ; preds = %41
  %43 = load i32, i32* %11, align 4
  %44 = add nsw i32 %43, 1
  store i32 %44, i32* %11, align 4
  br label %15

45:                                               ; preds = %15
  %46 = load i32, i32* %12, align 4
  ret i32 %46
}

; Function Attrs: noinline nounwind uwtable
define dso_local i32 @main() #0 {
  %1 = alloca i32, align 4
  %2 = alloca [10000 x i32], align 16
  %3 = alloca [10000 x i32], align 16
  %4 = alloca i32, align 4
  %5 = alloca i32, align 4
  %6 = alloca i32, align 4
  %7 = alloca i32, align 4
  %8 = alloca i32, align 4
  store i32 0, i32* %1, align 4
  %9 = bitcast [10000 x i32]* %3 to i8*
  call void @llvm.memset.p0i8.i64(i8* align 16 %9, i8 0, i64 40000, i1 false)
  store i32 0, i32* %8, align 4
  %10 = call i32 (i8*, ...) @__isoc99_scanf(i8* getelementptr inbounds ([3 x i8], [3 x i8]* @.str, i64 0, i64 0), i32* %6)
  store i32 0, i32* %4, align 4
  br label %11

11:                                               ; preds = %20, %0
  %12 = load i32, i32* %4, align 4
  %13 = load i32, i32* %6, align 4
  %14 = icmp slt i32 %12, %13
  br i1 %14, label %15, label %23

15:                                               ; preds = %11
  %16 = load i32, i32* %4, align 4
  %17 = sext i32 %16 to i64
  %18 = getelementptr inbounds [10000 x i32], [10000 x i32]* %2, i64 0, i64 %17
  %19 = call i32 (i8*, ...) @__isoc99_scanf(i8* getelementptr inbounds ([3 x i8], [3 x i8]* @.str, i64 0, i64 0), i32* %18)
  br label %20

20:                                               ; preds = %15
  %21 = load i32, i32* %4, align 4
  %22 = add nsw i32 %21, 1
  store i32 %22, i32* %4, align 4
  br label %11

23:                                               ; preds = %11
  %24 = load i32, i32* %6, align 4
  %25 = sub nsw i32 %24, 1
  %26 = sext i32 %25 to i64
  %27 = getelementptr inbounds [10000 x i32], [10000 x i32]* %3, i64 0, i64 %26
  store i32 1, i32* %27, align 4
  %28 = load i32, i32* %6, align 4
  %29 = sub nsw i32 %28, 2
  store i32 %29, i32* %4, align 4
  br label %30

30:                                               ; preds = %47, %23
  %31 = load i32, i32* %4, align 4
  %32 = icmp sge i32 %31, 0
  br i1 %32, label %33, label %50

33:                                               ; preds = %30
  %34 = getelementptr inbounds [10000 x i32], [10000 x i32]* %2, i64 0, i64 0
  %35 = getelementptr inbounds [10000 x i32], [10000 x i32]* %3, i64 0, i64 0
  %36 = load i32, i32* %4, align 4
  %37 = load i32, i32* %6, align 4
  %38 = load i32, i32* %4, align 4
  %39 = sext i32 %38 to i64
  %40 = getelementptr inbounds [10000 x i32], [10000 x i32]* %2, i64 0, i64 %39
  %41 = load i32, i32* %40, align 4
  %42 = call i32 @max(i32* %34, i32* %35, i32 %36, i32 %37, i32 %41)
  %43 = add nsw i32 %42, 1
  %44 = load i32, i32* %4, align 4
  %45 = sext i32 %44 to i64
  %46 = getelementptr inbounds [10000 x i32], [10000 x i32]* %3, i64 0, i64 %45
  store i32 %43, i32* %46, align 4
  br label %47

47:                                               ; preds = %33
  %48 = load i32, i32* %4, align 4
  %49 = add nsw i32 %48, -1
  store i32 %49, i32* %4, align 4
  br label %30

50:                                               ; preds = %30
  store i32 0, i32* %4, align 4
  br label %51

51:                                               ; preds = %69, %50
  %52 = load i32, i32* %4, align 4
  %53 = load i32, i32* %6, align 4
  %54 = sub nsw i32 %53, 1
  %55 = icmp slt i32 %52, %54
  br i1 %55, label %56, label %72

56:                                               ; preds = %51
  %57 = load i32, i32* %4, align 4
  %58 = sext i32 %57 to i64
  %59 = getelementptr inbounds [10000 x i32], [10000 x i32]* %3, i64 0, i64 %58
  %60 = load i32, i32* %59, align 4
  %61 = load i32, i32* %8, align 4
  %62 = icmp sgt i32 %60, %61
  br i1 %62, label %63, label %68

63:                                               ; preds = %56
  %64 = load i32, i32* %4, align 4
  %65 = sext i32 %64 to i64
  %66 = getelementptr inbounds [10000 x i32], [10000 x i32]* %3, i64 0, i64 %65
  %67 = load i32, i32* %66, align 4
  store i32 %67, i32* %8, align 4
  br label %68

68:                                               ; preds = %63, %56
  br label %69

69:                                               ; preds = %68
  %70 = load i32, i32* %4, align 4
  %71 = add nsw i32 %70, 1
  store i32 %71, i32* %4, align 4
  br label %51

72:                                               ; preds = %51
  %73 = load i32, i32* %8, align 4
  %74 = call i32 (i8*, ...) @printf(i8* getelementptr inbounds ([3 x i8], [3 x i8]* @.str, i64 0, i64 0), i32 %73)
  %75 = load i32, i32* %1, align 4
  ret i32 %75
}

; Function Attrs: argmemonly nounwind willreturn
declare void @llvm.memset.p0i8.i64(i8* nocapture writeonly, i8, i64, i1 immarg) #1

declare dso_local i32 @__isoc99_scanf(i8*, ...) #2

declare dso_local i32 @printf(i8*, ...) #2


!llvm.module.flags = !{!0}
!llvm.ident = !{!1}

!0 = !{i32 1, !"wchar_size", i32 4}
!1 = !{!"clang version 10.0.0-4ubuntu1 "}
